	.file	"sphere.c"
	.text
.Ltext0:
	.file 0 "/home/nathan/workspace/fit/c/src" "sphere.c"
	.globl	sphere
	.type	sphere, @function
sphere:
.LFB6:
	.file 1 "sphere.c"
	.loc 1 5 1
	.cfi_startproc
	endbr64
	pushq	%rbp
	.cfi_def_cfa_offset 16
	.cfi_offset 6, -16
	movq	%rsp, %rbp
	.cfi_def_cfa_register 6
	movq	%rdi, -24(%rbp)
	movq	%rsi, -32(%rbp)
	.loc 1 6 16
	pxor	%xmm0, %xmm0
	movsd	%xmm0, -16(%rbp)
.LBB2:
	.loc 1 7 21
	movq	$0, -8(%rbp)
	.loc 1 7 9
	jmp	.L2
.L3:
	.loc 1 8 27 discriminator 3
	movq	-8(%rbp), %rax
	leaq	0(,%rax,8), %rdx
	movq	-24(%rbp), %rax
	addq	%rdx, %rax
	movsd	(%rax), %xmm1
	.loc 1 8 34 discriminator 3
	movq	-8(%rbp), %rax
	leaq	0(,%rax,8), %rdx
	movq	-24(%rbp), %rax
	addq	%rdx, %rax
	movsd	(%rax), %xmm0
	.loc 1 8 31 discriminator 3
	mulsd	%xmm1, %xmm0
	.loc 1 8 23 discriminator 3
	movsd	-16(%rbp), %xmm1
	addsd	%xmm1, %xmm0
	movsd	%xmm0, -16(%rbp)
	.loc 1 7 36 discriminator 3
	addq	$1, -8(%rbp)
.L2:
	.loc 1 7 30 discriminator 1
	movq	-8(%rbp), %rax
	cmpq	-32(%rbp), %rax
	jb	.L3
.LBE2:
	.loc 1 9 16
	movsd	-16(%rbp), %xmm0
	movq	%xmm0, %rax
	.loc 1 10 1
	movq	%rax, %xmm0
	popq	%rbp
	.cfi_def_cfa 7, 8
	ret
	.cfi_endproc
.LFE6:
	.size	sphere, .-sphere
	.section	.rodata
.LC1:
	.string	"%f\n"
	.text
	.globl	main
	.type	main, @function
main:
.LFB7:
	.loc 1 13 1
	.cfi_startproc
	endbr64
	pushq	%rbp
	.cfi_def_cfa_offset 16
	.cfi_offset 6, -16
	movq	%rsp, %rbp
	.cfi_def_cfa_register 6
	pushq	%rbx
	subq	$72, %rsp
	.cfi_offset 3, -24
	movl	%edi, -68(%rbp)
	movq	%rsi, -80(%rbp)
	.loc 1 13 1
	movq	%fs:40, %rax
	movq	%rax, -24(%rbp)
	xorl	%eax, %eax
	movq	%rsp, %rax
	movq	%rax, %rbx
	.loc 1 14 25
	movl	-68(%rbp), %eax
	subl	$1, %eax
	.loc 1 14 16
	cltq
	movq	%rax, -48(%rbp)
	.loc 1 15 9
	movq	-48(%rbp), %rax
	.loc 1 15 16
	movq	%rax, %rdx
	subq	$1, %rdx
	movq	%rdx, -40(%rbp)
	movq	%rax, %r10
	movl	$0, %r11d
	movq	%rax, %r8
	movl	$0, %r9d
	leaq	0(,%rax,8), %rdx
	movl	$16, %eax
	subq	$1, %rax
	addq	%rdx, %rax
	movl	$16, %esi
	movl	$0, %edx
	divq	%rsi
	imulq	$16, %rax, %rax
	movq	%rax, %rcx
	andq	$-4096, %rcx
	movq	%rsp, %rdx
	subq	%rcx, %rdx
.L6:
	cmpq	%rdx, %rsp
	je	.L7
	subq	$4096, %rsp
	orq	$0, 4088(%rsp)
	jmp	.L6
.L7:
	movq	%rax, %rdx
	andl	$4095, %edx
	subq	%rdx, %rsp
	movq	%rax, %rdx
	andl	$4095, %edx
	testq	%rdx, %rdx
	je	.L8
	andl	$4095, %eax
	subq	$8, %rax
	addq	%rsp, %rax
	orq	$0, (%rax)
.L8:
	movq	%rsp, %rax
	addq	$7, %rax
	shrq	$3, %rax
	salq	$3, %rax
	movq	%rax, -32(%rbp)
.LBB3:
	.loc 1 16 21
	movq	$0, -56(%rbp)
	.loc 1 16 9
	jmp	.L9
.L10:
	.loc 1 17 33 discriminator 3
	movq	-56(%rbp), %rax
	addq	$1, %rax
	leaq	0(,%rax,8), %rdx
	movq	-80(%rbp), %rax
	addq	%rdx, %rax
	.loc 1 17 24 discriminator 3
	movq	(%rax), %rax
	movq	%rax, %rdi
	call	atof@PLT
	movq	%xmm0, %rax
	.loc 1 17 22 discriminator 3
	movq	-32(%rbp), %rdx
	movq	-56(%rbp), %rcx
	movq	%rax, (%rdx,%rcx,8)
	.loc 1 16 36 discriminator 3
	addq	$1, -56(%rbp)
.L9:
	.loc 1 16 30 discriminator 1
	movq	-56(%rbp), %rax
	cmpq	-48(%rbp), %rax
	jb	.L10
.LBE3:
	.loc 1 18 9
	movq	-48(%rbp), %rdx
	movq	-32(%rbp), %rax
	movq	%rdx, %rsi
	movq	%rax, %rdi
	call	sphere
	movq	%xmm0, %rax
	movq	%rax, %xmm0
	leaq	.LC1(%rip), %rax
	movq	%rax, %rdi
	movl	$1, %eax
	call	printf@PLT
	movq	%rbx, %rsp
	movl	$0, %eax
	.loc 1 19 1
	movq	-24(%rbp), %rdx
	subq	%fs:40, %rdx
	je	.L12
	call	__stack_chk_fail@PLT
.L12:
	movq	-8(%rbp), %rbx
	leave
	.cfi_def_cfa 7, 8
	ret
	.cfi_endproc
.LFE7:
	.size	main, .-main
.Letext0:
	.file 2 "/usr/include/stdio.h"
	.file 3 "/usr/include/stdlib.h"
	.file 4 "/usr/lib/gcc/x86_64-linux-gnu/11/include/stddef.h"
	.section	.note.GNU-stack,"",@progbits
	.section	.note.gnu.property,"a"
	.align 8
	.long	1f - 0f
	.long	4f - 1f
	.long	5
0:
	.string	"GNU"
1:
	.align 8
	.long	0xc0000002
	.long	3f - 2f
2:
	.long	0x3
3:
	.align 8
4:
